; Function Attrs: mustprogress nofree norecurse nosync nounwind willreturn memory(read, inaccessiblemem: none) uwtable
define dso_local noundef zeroext i1 @_ZN4Luau6detail24containsToposortableNodeERKSt6vectorIPNS_7AstStatESaIS3_EE(ptr nocapture noundef nonnull readonly align 8 dereferenceable(24) %0) local_unnamed_addr #5 {
  %2 = load ptr, ptr %0, align 8
  %3 = getelementptr inbounds i8, ptr %0, i64 8
  %4 = load ptr, ptr %3, align 8
  %.not = icmp eq ptr %2, %4
  br i1 %.not, label %_ZN4Luau6detail18isToposortableNodeERKNS_7AstStatE.exit.thread, label %.lr.ph

.lr.ph:                                           ; preds = %1
  %5 = load i32, ptr @_ZN4Luau7AstRttiINS_15AstStatFunctionEE5valueE, align 4
  %6 = load i32, ptr @_ZN4Luau7AstRttiINS_20AstStatLocalFunctionEE5valueE, align 4
  %7 = load i32, ptr @_ZN4Luau7AstRttiINS_16AstStatTypeAliasEE5valueE, align 4
  br label %8

8:                                                ; preds = %8, %.lr.ph
  %.sroa.05.09 = phi ptr [ %2, %.lr.ph ], [ %16, %8 ]
  %9 = load ptr, ptr %.sroa.05.09, align 8
  %10 = getelementptr inbounds i8, ptr %9, i64 8
  %11 = load i32, ptr %10, align 8
  %12 = icmp eq i32 %11, %5
  %13 = icmp eq i32 %11, %6
  %14 = select i1 %12, i1 true, i1 %13
  %15 = icmp eq i32 %11, %7
  %or.cond = select i1 %14, i1 true, i1 %15
  %16 = getelementptr inbounds i8, ptr %.sroa.05.09, i64 8
  %.not12 = icmp eq ptr %16, %4
  %or.cond13 = select i1 %or.cond, i1 true, i1 %.not12
  br i1 %or.cond13, label %_ZN4Luau6detail18isToposortableNodeERKNS_7AstStatE.exit.thread, label %8

_ZN4Luau6detail18isToposortableNodeERKNS_7AstStatE.exit.thread: ; preds = %8, %1
  %.lcssa = phi i1 [ false, %1 ], [ %or.cond, %8 ]
  ret i1 %.lcssa
}